target datalayout = "e-m:e-p270:32:32-p271:32:32-p272:64:64-i64:64-i128:128-f80:128-n8:16:32:64-S128"
target triple = "x86_64-pc-linux-gnu"

%struct.AVFilterContext = type { ptr, ptr, ptr, ptr, ptr, i32, ptr, ptr, i32, ptr, ptr, i32, i32, ptr, ptr, ptr, ptr, i32, ptr, i32, i32 }
%struct.FreezeDetectContext = type { ptr, [4 x i64], [4 x i64], ptr, i32, ptr, i64, i64, i32, double, i64 }
%struct.AVRational = type { i32, i32 }
%struct.AVChannelLayout = type { i32, i32, %union.anon.1, ptr }
%union.anon.1 = type { i64 }
%struct.AVFilterLink = type { ptr, ptr, ptr, ptr, i32, i32, i32, i32, %struct.AVRational, i32, i32, i32, %struct.AVChannelLayout, %struct.AVRational, ptr, i32, %struct.AVFilterFormatsConfig, %struct.AVFilterFormatsConfig }
%struct.AVFilterFormatsConfig = type { ptr, ptr, ptr, ptr, ptr }
%struct.AVPixFmtDescriptor = type { ptr, i8, i8, i8, i64, [4 x %struct.AVComponentDescriptor], ptr }
%struct.AVComponentDescriptor = type { i32, i32, i32, i32, i32 }

; Function Attrs: nounwind uwtable
define internal i32 @config_input(ptr noundef %0) #1 {
  %2 = alloca i32, align 4
  %3 = alloca ptr, align 8
  %4 = alloca ptr, align 8
  %5 = alloca ptr, align 8
  %6 = alloca ptr, align 8
  %7 = alloca i32, align 4
  %8 = alloca i64, align 8
  %9 = alloca i32, align 4
  store ptr %0, ptr %3, align 8, !tbaa !25
  call void @llvm.lifetime.start.p0(i64 8, ptr %4) #8
  %10 = load ptr, ptr %3, align 8, !tbaa !25
  %11 = getelementptr inbounds nuw %struct.AVFilterLink, ptr %10, i32 0, i32 2
  %12 = load ptr, ptr %11, align 8, !tbaa !58
  store ptr %12, ptr %4, align 8, !tbaa !4
  call void @llvm.lifetime.start.p0(i64 8, ptr %5) #8
  %13 = load ptr, ptr %4, align 8, !tbaa !4
  %14 = getelementptr inbounds nuw %struct.AVFilterContext, ptr %13, i32 0, i32 9
  %15 = load ptr, ptr %14, align 8, !tbaa !9
  store ptr %15, ptr %5, align 8, !tbaa !22
  call void @llvm.lifetime.start.p0(i64 8, ptr %6) #8
  %16 = load ptr, ptr %3, align 8, !tbaa !25
  %17 = getelementptr inbounds nuw %struct.AVFilterLink, ptr %16, i32 0, i32 5
  %18 = load i32, ptr %17, align 4, !tbaa !59
  %19 = call ptr @av_pix_fmt_desc_get(i32 noundef %18)
  store ptr %19, ptr %6, align 8, !tbaa !60
  %20 = load ptr, ptr %6, align 8, !tbaa !60
  %21 = getelementptr inbounds nuw %struct.AVPixFmtDescriptor, ptr %20, i32 0, i32 5
  %22 = getelementptr inbounds [4 x %struct.AVComponentDescriptor], ptr %21, i64 0, i64 0
  %23 = getelementptr inbounds nuw %struct.AVComponentDescriptor, ptr %22, i32 0, i32 4
  %24 = load i32, ptr %23, align 8, !tbaa !62
  %25 = load ptr, ptr %5, align 8, !tbaa !22
  %26 = getelementptr inbounds nuw %struct.FreezeDetectContext, ptr %25, i32 0, i32 4
  store i32 %24, ptr %26, align 8, !tbaa !64
  call void @llvm.lifetime.start.p0(i64 4, ptr %7) #8
  store i32 0, ptr %7, align 4, !tbaa !30
  br label %27

27:                                               ; preds = %77, %1
  %28 = load i32, ptr %7, align 4, !tbaa !30
  %29 = icmp slt i32 %28, 4
  br i1 %29, label %31, label %30

30:                                               ; preds = %27
  call void @llvm.lifetime.end.p0(i64 4, ptr %7) #8
  br label %80

31:                                               ; preds = %27
  call void @llvm.lifetime.start.p0(i64 8, ptr %8) #8
  %32 = load ptr, ptr %3, align 8, !tbaa !25
  %33 = getelementptr inbounds nuw %struct.AVFilterLink, ptr %32, i32 0, i32 5
  %34 = load i32, ptr %33, align 4, !tbaa !59
  %35 = load ptr, ptr %3, align 8, !tbaa !25
  %36 = getelementptr inbounds nuw %struct.AVFilterLink, ptr %35, i32 0, i32 6
  %37 = load i32, ptr %36, align 8, !tbaa !65
  %38 = load i32, ptr %7, align 4, !tbaa !30
  %39 = call i32 @av_image_get_linesize(i32 noundef %34, i32 noundef %37, i32 noundef %38)
  %40 = sext i32 %39 to i64
  store i64 %40, ptr %8, align 8, !tbaa !55
  %41 = load i64, ptr %8, align 8, !tbaa !55
  %42 = load ptr, ptr %5, align 8, !tbaa !22
  %43 = getelementptr inbounds nuw %struct.FreezeDetectContext, ptr %42, i32 0, i32 4
  %44 = load i32, ptr %43, align 8, !tbaa !64
  %45 = icmp sgt i32 %44, 8
  %46 = zext i1 %45 to i32
  %47 = zext i32 %46 to i64
  %48 = ashr i64 %41, %47
  %49 = load ptr, ptr %5, align 8, !tbaa !22
  %50 = getelementptr inbounds nuw %struct.FreezeDetectContext, ptr %49, i32 0, i32 1
  %51 = load i32, ptr %7, align 4, !tbaa !30
  %52 = sext i32 %51 to i64
  %53 = getelementptr inbounds [4 x i64], ptr %50, i64 0, i64 %52
  store i64 %48, ptr %53, align 8, !tbaa !55
  %54 = load ptr, ptr %3, align 8, !tbaa !25
  %55 = getelementptr inbounds nuw %struct.AVFilterLink, ptr %54, i32 0, i32 7
  %56 = load i32, ptr %55, align 4, !tbaa !66
  %57 = load i32, ptr %7, align 4, !tbaa !30
  %58 = icmp eq i32 %57, 1
  br i1 %58, label %62, label %59

59:                                               ; preds = %31
  %60 = load i32, ptr %7, align 4, !tbaa !30
  %61 = icmp eq i32 %60, 2
  br i1 %61, label %62, label %67

62:                                               ; preds = %59, %31
  %63 = load ptr, ptr %6, align 8, !tbaa !60
  %64 = getelementptr inbounds nuw %struct.AVPixFmtDescriptor, ptr %63, i32 0, i32 3
  %65 = load i8, ptr %64, align 2, !tbaa !67
  %66 = zext i8 %65 to i32
  br label %68

67:                                               ; preds = %59
  br label %68

68:                                               ; preds = %67, %62
  %69 = phi i32 [ %66, %62 ], [ 0, %67 ]
  %70 = ashr i32 %56, %69
  %71 = sext i32 %70 to i64
  %72 = load ptr, ptr %5, align 8, !tbaa !22
  %73 = getelementptr inbounds nuw %struct.FreezeDetectContext, ptr %72, i32 0, i32 2
  %74 = load i32, ptr %7, align 4, !tbaa !30
  %75 = sext i32 %74 to i64
  %76 = getelementptr inbounds [4 x i64], ptr %73, i64 0, i64 %75
  store i64 %71, ptr %76, align 8, !tbaa !55
  call void @llvm.lifetime.end.p0(i64 8, ptr %8) #8
  br label %77

77:                                               ; preds = %68
  %78 = load i32, ptr %7, align 4, !tbaa !30
  %79 = add nsw i32 %78, 1
  store i32 %79, ptr %7, align 4, !tbaa !30
  br label %27, !llvm.loop !69

80:                                               ; preds = %30
  %81 = load ptr, ptr %5, align 8, !tbaa !22
  %82 = getelementptr inbounds nuw %struct.FreezeDetectContext, ptr %81, i32 0, i32 4
  %83 = load i32, ptr %82, align 8, !tbaa !64
  %84 = icmp eq i32 %83, 8
  %85 = select i1 %84, i32 8, i32 16
  %86 = call ptr @ff_scene_sad_get_fn(i32 noundef %85)
  %87 = load ptr, ptr %5, align 8, !tbaa !22
  %88 = getelementptr inbounds nuw %struct.FreezeDetectContext, ptr %87, i32 0, i32 3
  store ptr %86, ptr %88, align 8, !tbaa !71
  %89 = load ptr, ptr %5, align 8, !tbaa !22
  %90 = getelementptr inbounds nuw %struct.FreezeDetectContext, ptr %89, i32 0, i32 3
  %91 = load ptr, ptr %90, align 8, !tbaa !71
  %92 = icmp ne ptr %91, null
  br i1 %92, label %94, label %93

93:                                               ; preds = %80
  store i32 -22, ptr %2, align 4
  store i32 1, ptr %9, align 4
  br label %95

94:                                               ; preds = %80
  store i32 0, ptr %2, align 4
  store i32 1, ptr %9, align 4
  br label %95

95:                                               ; preds = %94, %93
  call void @llvm.lifetime.end.p0(i64 8, ptr %6) #8
  call void @llvm.lifetime.end.p0(i64 8, ptr %5) #8
  call void @llvm.lifetime.end.p0(i64 8, ptr %4) #8
  %96 = load i32, ptr %2, align 4
  ret i32 %96
}