; Function Attrs: nounwind uwtable
define internal range(i32 -22, 1) i32 @config_input(ptr noundef readonly captures(none) %0) #1 {
  %2 = getelementptr inbounds nuw i8, ptr %0, i64 16
  %3 = load ptr, ptr %2, align 8, !tbaa !57
  %4 = getelementptr inbounds nuw i8, ptr %3, i64 72
  %5 = load ptr, ptr %4, align 8, !tbaa !4
  %6 = getelementptr inbounds nuw i8, ptr %0, i64 36
  %7 = load i32, ptr %6, align 4, !tbaa !58
  %8 = tail call ptr @av_pix_fmt_desc_get(i32 noundef %7) #7
  %9 = getelementptr inbounds nuw i8, ptr %8, i64 40
  %10 = load i32, ptr %9, align 8, !tbaa !59
  %11 = getelementptr inbounds nuw i8, ptr %5, i64 80
  store i32 %10, ptr %11, align 8, !tbaa !53
  %12 = getelementptr inbounds nuw i8, ptr %0, i64 40
  %13 = getelementptr inbounds nuw i8, ptr %5, i64 8
  %14 = getelementptr inbounds nuw i8, ptr %0, i64 44
  %15 = getelementptr inbounds nuw i8, ptr %8, i64 10
  %16 = getelementptr inbounds nuw i8, ptr %5, i64 40
  br label %22

17:                                               ; preds = %39
  %18 = icmp eq i32 %28, 8
  %19 = select i1 %18, i32 8, i32 16
  %20 = tail call ptr @ff_scene_sad_get_fn(i32 noundef %19) #7
  %21 = getelementptr inbounds nuw i8, ptr %5, i64 72
  store ptr %20, ptr %21, align 8, !tbaa !48
  %.not = icmp eq ptr %20, null
  %. = select i1 %.not, i32 -22, i32 0
  ret i32 %.

22:                                               ; preds = %1, %39
  %indvars.iv = phi i64 [ 0, %1 ], [ %indvars.iv.next, %39 ]
  %23 = load i32, ptr %6, align 4, !tbaa !58
  %24 = load i32, ptr %12, align 8, !tbaa !61
  %25 = trunc nuw nsw i64 %indvars.iv to i32
  %26 = tail call i32 @av_image_get_linesize(i32 noundef %23, i32 noundef %24, i32 noundef %25) #7
  %27 = sext i32 %26 to i64
  %28 = load i32, ptr %11, align 8, !tbaa !53
  %29 = icmp sgt i32 %28, 8
  %30 = zext i1 %29 to i64
  %31 = ashr i64 %27, %30
  %32 = getelementptr inbounds nuw [4 x i64], ptr %13, i64 0, i64 %indvars.iv
  store i64 %31, ptr %32, align 8, !tbaa !47
  %33 = load i32, ptr %14, align 4, !tbaa !62
  %34 = trunc i64 %indvars.iv to i32
  %35 = add i32 %34, -1
  %or.cond = icmp ult i32 %35, 2
  br i1 %or.cond, label %36, label %39

36:                                               ; preds = %22
  %37 = load i8, ptr %15, align 2, !tbaa !63
  %38 = zext i8 %37 to i32
  br label %39

39:                                               ; preds = %22, %36
  %40 = phi i32 [ %38, %36 ], [ 0, %22 ]
  %41 = ashr i32 %33, %40
  %42 = sext i32 %41 to i64
  %43 = getelementptr inbounds nuw [4 x i64], ptr %16, i64 0, i64 %indvars.iv
  store i64 %42, ptr %43, align 8, !tbaa !47
  %indvars.iv.next = add nuw nsw i64 %indvars.iv, 1
  %exitcond.not = icmp eq i64 %indvars.iv.next, 4
  br i1 %exitcond.not, label %17, label %22, !llvm.loop !65
}